; Function Attrs: mustprogress nounwind uwtable
define hidden noundef ptr @_ZN10OopStorage5Block13block_for_ptrEPKS_PKP7oopDesc(ptr noundef %0, ptr noundef %1) local_unnamed_addr #5 align 2 {
  %3 = ptrtoint ptr %1 to i64
  %4 = and i64 %3, -64
  %5 = inttoptr i64 %4 to ptr
  %6 = getelementptr inbounds i8, ptr %5, i64 -448
  %7 = ptrtoint ptr %0 to i64
  br label %8

8:                                                ; preds = %2, %12
  %.01013 = phi i32 [ 0, %2 ], [ %13, %12 ]
  %.01112 = phi ptr [ %6, %2 ], [ %14, %12 ]
  %9 = getelementptr inbounds i8, ptr %.01112, i64 520
  %10 = tail call noundef i64 @SafeFetchN_impl(ptr noundef nonnull %9, i64 noundef 0) #21
  %11 = icmp eq i64 %10, %7
  br i1 %11, label %15, label %12

12:                                               ; preds = %8
  %13 = add nuw nsw i32 %.01013, 1
  %14 = getelementptr inbounds i8, ptr %.01112, i64 64
  %exitcond.not = icmp eq i32 %13, 8
  br i1 %exitcond.not, label %15, label %8, !llvm.loop !11

15:                                               ; preds = %12, %8
  %.0 = phi ptr [ %.01112, %8 ], [ null, %12 ]
  ret ptr %.0
}